target datalayout = "e-m:e-p270:32:32-p271:32:32-p272:64:64-i64:64-i128:128-f80:128-n8:16:32:64-S128"
target triple = "x86_64-pc-linux-gnu"

%struct.uv_udp_s = type { ptr, ptr, i32, ptr, [2 x ptr], %union.anon, ptr, i32, i64, i64, ptr, ptr, %struct.uv__io_s, [2 x ptr], [2 x ptr] }
%union.anon = type { [4 x ptr] }
%struct.uv__io_s = type { ptr, [2 x ptr], [2 x ptr], i32, i32, i32 }
%union.__CONST_SOCKADDR_ARG = type { ptr }
%struct.sockaddr = type { i16, [14 x i8] }

; Function Attrs: nounwind uwtable
define dso_local i32 @uv__udp_disconnect(ptr noundef %0) #0 {
  %2 = alloca i32, align 4
  %3 = alloca ptr, align 8
  %4 = alloca i32, align 4
  %5 = alloca %struct.sockaddr, align 2
  %6 = alloca %union.__CONST_SOCKADDR_ARG, align 8
  store ptr %0, ptr %3, align 8
  call void @llvm.memset.p0.i64(ptr align 2 %5, i8 0, i64 16, i1 false)
  %7 = getelementptr inbounds %struct.sockaddr, ptr %5, i32 0, i32 0
  store i16 0, ptr %7, align 2
  br label %8

8:                                                ; preds = %24, %1
  %9 = call ptr @__errno_location() #8
  store i32 0, ptr %9, align 4
  %10 = load ptr, ptr %3, align 8
  %11 = getelementptr inbounds %struct.uv_udp_s, ptr %10, i32 0, i32 12
  %12 = getelementptr inbounds %struct.uv__io_s, ptr %11, i32 0, i32 5
  %13 = load i32, ptr %12, align 8
  store ptr %5, ptr %6, align 8
  %14 = getelementptr inbounds %union.__CONST_SOCKADDR_ARG, ptr %6, i32 0, i32 0
  %15 = load ptr, ptr %14, align 8
  %16 = call i32 @connect(i32 noundef %13, ptr %15, i32 noundef 16)
  store i32 %16, ptr %4, align 4
  br label %17

17:                                               ; preds = %8
  %18 = load i32, ptr %4, align 4
  %19 = icmp eq i32 %18, -1
  br i1 %19, label %20, label %24

20:                                               ; preds = %17
  %21 = call ptr @__errno_location() #8
  %22 = load i32, ptr %21, align 4
  %23 = icmp eq i32 %22, 4
  br label %24

24:                                               ; preds = %20, %17
  %25 = phi i1 [ false, %17 ], [ %23, %20 ]
  br i1 %25, label %8, label %26, !llvm.loop !9

26:                                               ; preds = %24
  %27 = load i32, ptr %4, align 4
  %28 = icmp eq i32 %27, -1
  br i1 %28, label %29, label %33

29:                                               ; preds = %26
  %30 = call ptr @__errno_location() #8
  %31 = load i32, ptr %30, align 4
  %32 = sub nsw i32 0, %31
  store i32 %32, ptr %2, align 4
  br label %38

33:                                               ; preds = %26
  %34 = load ptr, ptr %3, align 8
  %35 = getelementptr inbounds %struct.uv_udp_s, ptr %34, i32 0, i32 7
  %36 = load i32, ptr %35, align 8
  %37 = and i32 %36, -33554433
  store i32 %37, ptr %35, align 8
  store i32 0, ptr %2, align 4
  br label %38

38:                                               ; preds = %33, %29
  %39 = load i32, ptr %2, align 4
  ret i32 %39
}